ARM GAS  C:\Users\nikla\AppData\Local\Temp\ccwX8bEU.s 			page 1


   1              		.syntax unified
   2              		.cpu cortex-m3
   3              		.fpu softvfp
   4              		.eabi_attribute 20, 1
   5              		.eabi_attribute 21, 1
   6              		.eabi_attribute 23, 3
   7              		.eabi_attribute 24, 1
   8              		.eabi_attribute 25, 1
   9              		.eabi_attribute 26, 1
  10              		.eabi_attribute 30, 1
  11              		.eabi_attribute 34, 1
  12              		.eabi_attribute 18, 4
  13              		.thumb
  14              		.syntax unified
  15              		.file	"main.c"
  16              		.text
  17              	.Ltext0:
  18              		.cfi_sections	.debug_frame
  19              		.global	__aeabi_i2f
  20              		.global	__aeabi_fdiv
  21              		.global	__aeabi_f2d
  22              		.global	__aeabi_d2f
  23              		.global	__aeabi_fcmplt
  24              		.global	__aeabi_ui2f
  25              		.global	__aeabi_f2uiz
  26              		.global	__aeabi_fmul
  27              		.section	.text.main,"ax",%progbits
  28              		.align	2
  29              		.global	main
  30              		.thumb
  31              		.thumb_func
  32              		.type	main, %function
  33              	main:
  34              	.LFB64:
  35              		.file 1 "main.c"
   1:main.c        **** /**
   2:main.c        **** * @mainpage ZumoBot Project
   3:main.c        **** * @brief    You can make your own ZumoBot with various sensors.
   4:main.c        **** * @details  <br><br>
   5:main.c        ****     <p>
   6:main.c        ****     <B>General</B><br>
   7:main.c        ****     You will use Pololu Zumo Shields for your robot project with CY8CKIT-059(PSoC 5LP) from Cypress
   8:main.c        ****     library has basic methods of various sensors and communications so that you can make what you w
   9:main.c        ****     <br><br>
  10:main.c        ****     </p>
  11:main.c        ****     
  12:main.c        ****     <p>
  13:main.c        ****     <B>Sensors</B><br>
  14:main.c        ****     &nbsp;Included: <br>
  15:main.c        ****         &nbsp;&nbsp;&nbsp;&nbsp;LSM303D: Accelerometer & Magnetometer<br>
  16:main.c        ****         &nbsp;&nbsp;&nbsp;&nbsp;L3GD20H: Gyroscope<br>
  17:main.c        ****         &nbsp;&nbsp;&nbsp;&nbsp;Reflectance sensor<br>
  18:main.c        ****         &nbsp;&nbsp;&nbsp;&nbsp;Motors
  19:main.c        ****     &nbsp;Wii nunchuck<br>
  20:main.c        ****     &nbsp;TSOP-2236: IR Receiver<br>
  21:main.c        ****     &nbsp;HC-SR04: Ultrasonic sensor<br>
  22:main.c        ****     &nbsp;APDS-9301: Ambient light sensor<br>
ARM GAS  C:\Users\nikla\AppData\Local\Temp\ccwX8bEU.s 			page 2


  23:main.c        ****     &nbsp;IR LED <br><br><br>
  24:main.c        ****     </p>
  25:main.c        ****     
  26:main.c        ****     <p>
  27:main.c        ****     <B>Communication</B><br>
  28:main.c        ****     I2C, UART, Serial<br>
  29:main.c        ****     </p>
  30:main.c        **** */
  31:main.c        **** 
  32:main.c        **** #include <project.h>
  33:main.c        **** #include <stdio.h>
  34:main.c        **** #include <stdlib.h>
  35:main.c        **** #include <stdbool.h>
  36:main.c        **** #include <math.h>
  37:main.c        **** #include "Motor.h"
  38:main.c        **** #include "Ultra.h"
  39:main.c        **** #include "Nunchuk.h"
  40:main.c        **** #include "Reflectance.h"
  41:main.c        **** #include "I2C_made.h"
  42:main.c        **** #include "Gyro.h"
  43:main.c        **** #include "Accel_magnet.h"
  44:main.c        **** #include "IR.h"
  45:main.c        **** #include "Ambient.h"
  46:main.c        **** #include "Beep.h"
  47:main.c        **** 
  48:main.c        **** int rread(void);
  49:main.c        **** 
  50:main.c        **** uint8 MAX_SPEED = 255;
  51:main.c        **** /**
  52:main.c        ****  * @file    main.c
  53:main.c        ****  * @brief   
  54:main.c        ****  * @details  ** You should enable global interrupt for operating properly. **<br>&nbsp;&nbsp;&nbsp;
  55:main.c        **** */
  56:main.c        **** 
  57:main.c        **** 
  58:main.c        **** //battery level//
  59:main.c        **** int main()
  60:main.c        **** {
  36              		.loc 1 60 0
  37              		.cfi_startproc
  38              		@ args = 0, pretend = 0, frame = 16
  39              		@ frame_needed = 0, uses_anonymous_args = 0
  40 0000 2DE9F04F 		push	{r4, r5, r6, r7, r8, r9, r10, fp, lr}
  41              		.cfi_def_cfa_offset 36
  42              		.cfi_offset 4, -36
  43              		.cfi_offset 5, -32
  44              		.cfi_offset 6, -28
  45              		.cfi_offset 7, -24
  46              		.cfi_offset 8, -20
  47              		.cfi_offset 9, -16
  48              		.cfi_offset 10, -12
  49              		.cfi_offset 11, -8
  50              		.cfi_offset 14, -4
  51 0004 87B0     		sub	sp, sp, #28
  52              		.cfi_def_cfa_offset 64
  61:main.c        ****     CyGlobalIntEnable; 
  53              		.loc 1 61 0
ARM GAS  C:\Users\nikla\AppData\Local\Temp\ccwX8bEU.s 			page 3


  54              		.syntax unified
  55              	@ 61 "main.c" 1
  56 0006 62B6     		CPSIE   i
  57              	@ 0 "" 2
  62:main.c        ****     UART_1_Start();
  58              		.loc 1 62 0
  59              		.thumb
  60              		.syntax unified
  61 0008 FFF7FEFF 		bl	UART_1_Start
  62              	.LVL0:
  63:main.c        ****     ADC_Battery_Start();         
  63              		.loc 1 63 0
  64 000c FFF7FEFF 		bl	ADC_Battery_Start
  65              	.LVL1:
  64:main.c        ****     printf("\nBoot\n");
  66              		.loc 1 64 0
  67 0010 9848     		ldr	r0, .L32
  68 0012 FFF7FEFF 		bl	puts
  69              	.LVL2:
  65:main.c        ****     BatteryLed_Write(0); // Switch led off 
  70              		.loc 1 65 0
  71 0016 0020     		movs	r0, #0
  72 0018 FFF7FEFF 		bl	BatteryLed_Write
  73              	.LVL3:
  66:main.c        ****     
  67:main.c        ****     int16 adcresult =0;
  68:main.c        ****     float vbat = 0.0; 
  69:main.c        ****     uint8 button;
  70:main.c        ****     uint8 leftMotor = 20;
  71:main.c        ****     uint8 rightMotor = 20;
  72:main.c        ****     int checkVoltage = 5000;
  73:main.c        ****     int lineDelay = 0;
  74:main.c        ****     uint8 exponent = 3;
  75:main.c        ****     uint8 turnMult = 2;
  76:main.c        ****     bool stop = false;
  77:main.c        ****     
  78:main.c        ****     struct sensors_ ref;
  79:main.c        ****     CyGlobalIntEnable; 
  74              		.loc 1 79 0
  75              		.syntax unified
  76              	@ 79 "main.c" 1
  77 001c 62B6     		CPSIE   i
  78              	@ 0 "" 2
  80:main.c        ****     sensor_isr_StartEx(sensor_isr_handler);
  79              		.loc 1 80 0
  80              		.thumb
  81              		.syntax unified
  82 001e 9648     		ldr	r0, .L32+4
  83 0020 FFF7FEFF 		bl	sensor_isr_StartEx
  84              	.LVL4:
  81:main.c        ****     
  82:main.c        ****     reflectance_start();
  85              		.loc 1 82 0
  86 0024 FFF7FEFF 		bl	reflectance_start
  87              	.LVL5:
  83:main.c        ****     IR_led_Write(1);
  88              		.loc 1 83 0
ARM GAS  C:\Users\nikla\AppData\Local\Temp\ccwX8bEU.s 			page 4


  89 0028 0120     		movs	r0, #1
  90 002a FFF7FEFF 		bl	IR_led_Write
  91              	.LVL6:
  76:main.c        ****     
  92              		.loc 1 76 0
  93 002e 4FF0000A 		mov	r10, #0
  73:main.c        ****     uint8 exponent = 3;
  94              		.loc 1 73 0
  95 0032 5746     		mov	r7, r10
  72:main.c        ****     int lineDelay = 0;
  96              		.loc 1 72 0
  97 0034 41F28839 		movw	r9, #5000
  68:main.c        ****     uint8 button;
  98              		.loc 1 68 0
  99 0038 0023     		movs	r3, #0
 100 003a 0393     		str	r3, [sp, #12]	@ float
 101              	.LVL7:
 102              	.L11:
  84:main.c        ****     for(;;)
  85:main.c        ****     {
  86:main.c        ****         button = SW1_Read();
 103              		.loc 1 86 0
 104 003c FFF7FEFF 		bl	SW1_Read
 105              	.LVL8:
  87:main.c        ****         //reflectance_read(&ref);
  88:main.c        ****         if(button == 0){
 106              		.loc 1 88 0
 107 0040 0028     		cmp	r0, #0
 108 0042 40F0B080 		bne	.L2
  89:main.c        ****             reflectance_read(&ref);
 109              		.loc 1 89 0
 110 0046 04A8     		add	r0, sp, #16
 111              	.LVL9:
 112 0048 FFF7FEFF 		bl	reflectance_read
 113              	.LVL10:
  90:main.c        ****             if(ref.l3 > 23000 && ref.l1 > 23000 && ref.r1 > 23000 && ref.r3 > 23000){
 114              		.loc 1 90 0
 115 004c BDF81020 		ldrh	r2, [sp, #16]
 116 0050 45F6D813 		movw	r3, #23000
 117 0054 9A42     		cmp	r2, r3
 118 0056 40F2A680 		bls	.L2
 119              		.loc 1 90 0 is_stmt 0 discriminator 1
 120 005a BDF81220 		ldrh	r2, [sp, #18]
 121 005e 9A42     		cmp	r2, r3
 122 0060 40F2A180 		bls	.L2
 123              		.loc 1 90 0 discriminator 2
 124 0064 BDF81420 		ldrh	r2, [sp, #20]
 125 0068 9A42     		cmp	r2, r3
 126 006a 40F29C80 		bls	.L2
 127              		.loc 1 90 0 discriminator 3
 128 006e BDF81620 		ldrh	r2, [sp, #22]
 129 0072 9A42     		cmp	r2, r3
 130 0074 40F29780 		bls	.L2
  91:main.c        ****                 CyDelay(500);
 131              		.loc 1 91 0 is_stmt 1
 132 0078 4FF4FA70 		mov	r0, #500
 133 007c FFF7FEFF 		bl	CyDelay
ARM GAS  C:\Users\nikla\AppData\Local\Temp\ccwX8bEU.s 			page 5


 134              	.LVL11:
  92:main.c        ****                 motor_start();              // motor start
 135              		.loc 1 92 0
 136 0080 FFF7FEFF 		bl	motor_start
 137              	.LVL12:
 138 0084 01E0     		b	.L3
 139              	.LVL13:
 140              	.L20:
 141              	.LBB2:
  93:main.c        ****             for(;;){
  94:main.c        ****                 reflectance_read(&ref);
  95:main.c        ****                 //printf("%d %d %d %d \r\n", ref.l3, ref.l1, ref.r1, ref.r3);
  96:main.c        ****                 float leftSensors = (float)((ref.l3 * turnMult) + ref.l1);
  97:main.c        ****                 float rightSensors = (float)((ref.r3 * turnMult) +ref.r1);
  98:main.c        ****                 
  99:main.c        ****                 float leftRatio = leftSensors / rightSensors;
 100:main.c        ****                 leftRatio = pow(leftRatio,exponent);
 101:main.c        ****                 float motorSpeedLeft = MAX_SPEED/leftRatio;
 102:main.c        ****                 if(motorSpeedLeft > MAX_SPEED) motorSpeedLeft = MAX_SPEED;
 103:main.c        ****         
 104:main.c        ****                 float rightRatio = rightSensors / leftSensors;
 105:main.c        ****                 rightRatio = pow(rightRatio,exponent);
 106:main.c        ****                 float motorSpeedRight = MAX_SPEED/ rightRatio;
 107:main.c        ****                 if(motorSpeedRight > MAX_SPEED) motorSpeedRight = MAX_SPEED;
 108:main.c        ****                 
 109:main.c        ****                 if(motorSpeedRight > motorSpeedLeft) leftMotor = MAX_SPEED;
 110:main.c        ****                 if(motorSpeedLeft > motorSpeedRight) rightMotor = MAX_SPEED;
 111:main.c        ****            
 112:main.c        ****                 leftMotor = motorSpeedLeft;
 113:main.c        ****                 rightMotor = motorSpeedRight;
 114:main.c        ****                 motor_turn(leftMotor,rightMotor,1);
 115:main.c        ****                 lineDelay++;
 116:main.c        ****                 printf("left : %f right : %f\n",motorSpeedLeft ,motorSpeedRight);
 117:main.c        ****                 if(ref.l3 > 23000 && ref.l1 > 23000 && ref.r1 > 23000 && ref.r3 > 23000 && lineDela
 118:main.c        ****                     if(stop)break;
 119:main.c        ****                     stop = true;
 142              		.loc 1 119 0
 143 0086 4FF0010A 		mov	r10, #1
 144              	.LVL14:
 145              	.L3:
  94:main.c        ****                 //printf("%d %d %d %d \r\n", ref.l3, ref.l1, ref.r1, ref.r3);
 146              		.loc 1 94 0
 147 008a 04A8     		add	r0, sp, #16
 148 008c FFF7FEFF 		bl	reflectance_read
 149              	.LVL15:
  96:main.c        ****                 float rightSensors = (float)((ref.r3 * turnMult) +ref.r1);
 150              		.loc 1 96 0
 151 0090 BDF81000 		ldrh	r0, [sp, #16]
 152 0094 BDF81230 		ldrh	r3, [sp, #18]
 153 0098 03EB4000 		add	r0, r3, r0, lsl #1
 154 009c FFF7FEFF 		bl	__aeabi_i2f
 155              	.LVL16:
 156 00a0 0646     		mov	r6, r0
 157              	.LVL17:
  97:main.c        ****                 
 158              		.loc 1 97 0
 159 00a2 BDF81600 		ldrh	r0, [sp, #22]
ARM GAS  C:\Users\nikla\AppData\Local\Temp\ccwX8bEU.s 			page 6


 160              	.LVL18:
 161 00a6 BDF81430 		ldrh	r3, [sp, #20]
 162 00aa 03EB4000 		add	r0, r3, r0, lsl #1
 163 00ae FFF7FEFF 		bl	__aeabi_i2f
 164              	.LVL19:
 165 00b2 0546     		mov	r5, r0
 166              	.LVL20:
  99:main.c        ****                 leftRatio = pow(leftRatio,exponent);
 167              		.loc 1 99 0
 168 00b4 0146     		mov	r1, r0
 169 00b6 3046     		mov	r0, r6
 170              	.LVL21:
 171 00b8 FFF7FEFF 		bl	__aeabi_fdiv
 172              	.LVL22:
 100:main.c        ****                 float motorSpeedLeft = MAX_SPEED/leftRatio;
 173              		.loc 1 100 0
 174 00bc FFF7FEFF 		bl	__aeabi_f2d
 175              	.LVL23:
 176 00c0 0022     		movs	r2, #0
 177 00c2 6E4B     		ldr	r3, .L32+8
 178 00c4 FFF7FEFF 		bl	pow
 179              	.LVL24:
 180 00c8 FFF7FEFF 		bl	__aeabi_d2f
 181              	.LVL25:
 182 00cc 0446     		mov	r4, r0
 183              	.LVL26:
 101:main.c        ****                 if(motorSpeedLeft > MAX_SPEED) motorSpeedLeft = MAX_SPEED;
 184              		.loc 1 101 0
 185 00ce 6C4B     		ldr	r3, .L32+12
 186 00d0 93F80080 		ldrb	r8, [r3]	@ zero_extendqisi2
 187 00d4 4046     		mov	r0, r8
 188              	.LVL27:
 189 00d6 FFF7FEFF 		bl	__aeabi_i2f
 190              	.LVL28:
 191 00da 8346     		mov	fp, r0
 192 00dc 2146     		mov	r1, r4
 193 00de FFF7FEFF 		bl	__aeabi_fdiv
 194              	.LVL29:
 195 00e2 0446     		mov	r4, r0
 196              	.LVL30:
 102:main.c        ****         
 197              		.loc 1 102 0
 198 00e4 0146     		mov	r1, r0
 199 00e6 5846     		mov	r0, fp
 200              	.LVL31:
 201 00e8 FFF7FEFF 		bl	__aeabi_fcmplt
 202              	.LVL32:
 203 00ec 18B1     		cbz	r0, .L4
 102:main.c        ****         
 204              		.loc 1 102 0 is_stmt 0 discriminator 1
 205 00ee 4046     		mov	r0, r8
 206 00f0 FFF7FEFF 		bl	__aeabi_ui2f
 207              	.LVL33:
 208 00f4 0446     		mov	r4, r0
 209              	.LVL34:
 210              	.L4:
 104:main.c        ****                 rightRatio = pow(rightRatio,exponent);
ARM GAS  C:\Users\nikla\AppData\Local\Temp\ccwX8bEU.s 			page 7


 211              		.loc 1 104 0 is_stmt 1
 212 00f6 3146     		mov	r1, r6
 213 00f8 2846     		mov	r0, r5
 214 00fa FFF7FEFF 		bl	__aeabi_fdiv
 215              	.LVL35:
 105:main.c        ****                 float motorSpeedRight = MAX_SPEED/ rightRatio;
 216              		.loc 1 105 0
 217 00fe FFF7FEFF 		bl	__aeabi_f2d
 218              	.LVL36:
 219 0102 0022     		movs	r2, #0
 220 0104 5D4B     		ldr	r3, .L32+8
 221 0106 FFF7FEFF 		bl	pow
 222              	.LVL37:
 223 010a FFF7FEFF 		bl	__aeabi_d2f
 224              	.LVL38:
 225 010e 0646     		mov	r6, r0
 226              	.LVL39:
 106:main.c        ****                 if(motorSpeedRight > MAX_SPEED) motorSpeedRight = MAX_SPEED;
 227              		.loc 1 106 0
 228 0110 5B4B     		ldr	r3, .L32+12
 229 0112 1D78     		ldrb	r5, [r3]	@ zero_extendqisi2
 230              	.LVL40:
 231 0114 2846     		mov	r0, r5
 232              	.LVL41:
 233 0116 FFF7FEFF 		bl	__aeabi_i2f
 234              	.LVL42:
 235 011a 8046     		mov	r8, r0
 236 011c 3146     		mov	r1, r6
 237 011e FFF7FEFF 		bl	__aeabi_fdiv
 238              	.LVL43:
 239 0122 0646     		mov	r6, r0
 240              	.LVL44:
 107:main.c        ****                 
 241              		.loc 1 107 0
 242 0124 0146     		mov	r1, r0
 243 0126 4046     		mov	r0, r8
 244              	.LVL45:
 245 0128 FFF7FEFF 		bl	__aeabi_fcmplt
 246              	.LVL46:
 247 012c 18B1     		cbz	r0, .L6
 107:main.c        ****                 
 248              		.loc 1 107 0 is_stmt 0 discriminator 1
 249 012e 2846     		mov	r0, r5
 250 0130 FFF7FEFF 		bl	__aeabi_ui2f
 251              	.LVL47:
 252 0134 0646     		mov	r6, r0
 253              	.LVL48:
 254              	.L6:
 112:main.c        ****                 rightMotor = motorSpeedRight;
 255              		.loc 1 112 0 is_stmt 1
 256 0136 2046     		mov	r0, r4
 257 0138 FFF7FEFF 		bl	__aeabi_f2uiz
 258              	.LVL49:
 259 013c C5B2     		uxtb	r5, r0
 260              	.LVL50:
 113:main.c        ****                 motor_turn(leftMotor,rightMotor,1);
 261              		.loc 1 113 0
ARM GAS  C:\Users\nikla\AppData\Local\Temp\ccwX8bEU.s 			page 8


 262 013e 3046     		mov	r0, r6
 263 0140 FFF7FEFF 		bl	__aeabi_f2uiz
 264              	.LVL51:
 114:main.c        ****                 lineDelay++;
 265              		.loc 1 114 0
 266 0144 0122     		movs	r2, #1
 267 0146 C1B2     		uxtb	r1, r0
 268 0148 2846     		mov	r0, r5
 269              	.LVL52:
 270 014a FFF7FEFF 		bl	motor_turn
 271              	.LVL53:
 115:main.c        ****                 printf("left : %f right : %f\n",motorSpeedLeft ,motorSpeedRight);
 272              		.loc 1 115 0
 273 014e 0137     		adds	r7, r7, #1
 274              	.LVL54:
 116:main.c        ****                 if(ref.l3 > 23000 && ref.l1 > 23000 && ref.r1 > 23000 && ref.r3 > 23000 && lineDela
 275              		.loc 1 116 0
 276 0150 2046     		mov	r0, r4
 277 0152 FFF7FEFF 		bl	__aeabi_f2d
 278              	.LVL55:
 279 0156 0446     		mov	r4, r0
 280              	.LVL56:
 281 0158 0D46     		mov	r5, r1
 282              	.LVL57:
 283 015a 3046     		mov	r0, r6
 284 015c FFF7FEFF 		bl	__aeabi_f2d
 285              	.LVL58:
 286 0160 CDE90001 		strd	r0, [sp]
 287 0164 2246     		mov	r2, r4
 288 0166 2B46     		mov	r3, r5
 289 0168 4648     		ldr	r0, .L32+16
 290 016a FFF7FEFF 		bl	printf
 291              	.LVL59:
 117:main.c        ****                     if(stop)break;
 292              		.loc 1 117 0
 293 016e BDF81020 		ldrh	r2, [sp, #16]
 294 0172 45F6D813 		movw	r3, #23000
 295 0176 9A42     		cmp	r2, r3
 296 0178 87D9     		bls	.L3
 117:main.c        ****                     if(stop)break;
 297              		.loc 1 117 0 is_stmt 0 discriminator 1
 298 017a BDF81220 		ldrh	r2, [sp, #18]
 299 017e 9A42     		cmp	r2, r3
 300 0180 83D9     		bls	.L3
 117:main.c        ****                     if(stop)break;
 301              		.loc 1 117 0 discriminator 2
 302 0182 BDF81420 		ldrh	r2, [sp, #20]
 303 0186 9A42     		cmp	r2, r3
 304 0188 7FF67FAF 		bls	.L3
 117:main.c        ****                     if(stop)break;
 305              		.loc 1 117 0 discriminator 3
 306 018c BDF81620 		ldrh	r2, [sp, #22]
 307 0190 9A42     		cmp	r2, r3
 308 0192 7FF67AAF 		bls	.L3
 117:main.c        ****                     if(stop)break;
 309              		.loc 1 117 0 discriminator 4
 310 0196 B7F5FA6F 		cmp	r7, #2000
ARM GAS  C:\Users\nikla\AppData\Local\Temp\ccwX8bEU.s 			page 9


 311 019a 7FF776AF 		ble	.L3
 118:main.c        ****                     stop = true;
 312              		.loc 1 118 0 is_stmt 1
 313 019e BAF1000F 		cmp	r10, #0
 314 01a2 3FF470AF 		beq	.L20
 315              	.LVL60:
 316              	.L2:
 317              	.LBE2:
 120:main.c        ****                 }
 121:main.c        ****                 }
 122:main.c        ****             }
 123:main.c        ****         }
 124:main.c        ****         motor_forward(0,0);
 318              		.loc 1 124 0
 319 01a6 0021     		movs	r1, #0
 320 01a8 0846     		mov	r0, r1
 321 01aa FFF7FEFF 		bl	motor_forward
 322              	.LVL61:
 125:main.c        ****         motor_stop();               // motor stop
 323              		.loc 1 125 0
 324 01ae FFF7FEFF 		bl	motor_stop
 325              	.LVL62:
 126:main.c        ****         
 127:main.c        ****         ADC_Battery_StartConvert();
 326              		.loc 1 127 0
 327 01b2 FFF7FEFF 		bl	ADC_Battery_StartConvert
 328              	.LVL63:
 128:main.c        ****         if(checkVoltage >= 5000){
 329              		.loc 1 128 0
 330 01b6 41F28733 		movw	r3, #4999
 331 01ba 9945     		cmp	r9, r3
 332 01bc 1BDD     		ble	.L9
 129:main.c        ****             if(ADC_Battery_IsEndConversion(ADC_Battery_WAIT_FOR_RESULT)) {   // wait for get ADC co
 333              		.loc 1 129 0
 334 01be 0020     		movs	r0, #0
 335 01c0 FFF7FEFF 		bl	ADC_Battery_IsEndConversion
 336              	.LVL64:
 337 01c4 A8B1     		cbz	r0, .L21
 130:main.c        ****                 adcresult = ADC_Battery_GetResult16();
 338              		.loc 1 130 0
 339 01c6 FFF7FEFF 		bl	ADC_Battery_GetResult16
 340              	.LVL65:
 131:main.c        ****                 vbat = (float)adcresult/(float)819;
 341              		.loc 1 131 0
 342 01ca FFF7FEFF 		bl	__aeabi_i2f
 343              	.LVL66:
 344 01ce 2E49     		ldr	r1, .L32+20
 345 01d0 FFF7FEFF 		bl	__aeabi_fdiv
 346              	.LVL67:
 132:main.c        ****                 vbat *=1.5;
 347              		.loc 1 132 0
 348 01d4 4FF07F51 		mov	r1, #1069547520
 349 01d8 FFF7FEFF 		bl	__aeabi_fmul
 350              	.LVL68:
 351 01dc 0390     		str	r0, [sp, #12]	@ float
 352              	.LVL69:
 133:main.c        ****             
ARM GAS  C:\Users\nikla\AppData\Local\Temp\ccwX8bEU.s 			page 10


 134:main.c        ****             // If you want to print value
 135:main.c        ****             //printf("%d %f\r\n",adcresult, volts);
 136:main.c        ****                 printf("Vbat: %.6f\n", vbat);
 353              		.loc 1 136 0
 354 01de FFF7FEFF 		bl	__aeabi_f2d
 355              	.LVL70:
 356 01e2 0246     		mov	r2, r0
 357 01e4 0B46     		mov	r3, r1
 358 01e6 2948     		ldr	r0, .L32+24
 359 01e8 FFF7FEFF 		bl	printf
 360              	.LVL71:
 137:main.c        ****             }
 138:main.c        ****             checkVoltage = 0;
 361              		.loc 1 138 0
 362 01ec 4FF00009 		mov	r9, #0
 363              	.LVL72:
 364 01f0 01E0     		b	.L9
 365              	.LVL73:
 366              	.L21:
 367 01f2 4FF00009 		mov	r9, #0
 368              	.LVL74:
 369              	.L9:
 139:main.c        ****         }
 140:main.c        ****         if(vbat < 0.0){
 370              		.loc 1 140 0
 371 01f6 0021     		movs	r1, #0
 372 01f8 0398     		ldr	r0, [sp, #12]	@ float
 373 01fa FFF7FEFF 		bl	__aeabi_fcmplt
 374              	.LVL75:
 375 01fe 28B9     		cbnz	r0, .L22
 141:main.c        ****             break;
 142:main.c        ****         }
 143:main.c        ****         CyDelay(20);
 376              		.loc 1 143 0
 377 0200 1420     		movs	r0, #20
 378 0202 FFF7FEFF 		bl	CyDelay
 379              	.LVL76:
 144:main.c        ****         checkVoltage +=20;
 380              		.loc 1 144 0
 381 0206 09F11409 		add	r9, r9, #20
 382              	.LVL77:
 145:main.c        ****         
 146:main.c        ****     }
 383              		.loc 1 146 0
 384 020a 17E7     		b	.L11
 385              	.L22:
 386 020c 0A25     		movs	r5, #10
 387 020e 40F2DB14 		movw	r4, #475
 388 0212 0026     		movs	r6, #0
 389              	.L10:
 390              	.LVL78:
 147:main.c        ****     bool on = false;  
 148:main.c        ****     int delay = 475;
 149:main.c        ****     int delaySubtract = 10;
 150:main.c        ****     for(;;){
 151:main.c        ****         if(!on){
 391              		.loc 1 151 0
ARM GAS  C:\Users\nikla\AppData\Local\Temp\ccwX8bEU.s 			page 11


 392 0214 26B9     		cbnz	r6, .L12
 152:main.c        ****             BatteryLed_Write(1);
 393              		.loc 1 152 0
 394 0216 0120     		movs	r0, #1
 395 0218 FFF7FEFF 		bl	BatteryLed_Write
 396              	.LVL79:
 153:main.c        ****             on = true;
 397              		.loc 1 153 0
 398 021c 0126     		movs	r6, #1
 399 021e 03E0     		b	.L13
 400              	.LVL80:
 401              	.L12:
 154:main.c        ****         }else{
 155:main.c        ****             BatteryLed_Write(0);
 402              		.loc 1 155 0
 403 0220 0020     		movs	r0, #0
 404 0222 FFF7FEFF 		bl	BatteryLed_Write
 405              	.LVL81:
 156:main.c        ****             on = false;
 406              		.loc 1 156 0
 407 0226 0026     		movs	r6, #0
 408              	.LVL82:
 409              	.L13:
 157:main.c        ****         }
 158:main.c        ****         
 159:main.c        ****         if(delay == 0){
 410              		.loc 1 159 0
 411 0228 0CB9     		cbnz	r4, .L14
 160:main.c        ****             delaySubtract = -1;
 412              		.loc 1 160 0
 413 022a 4FF0FF35 		mov	r5, #-1
 414              	.LVL83:
 415              	.L14:
 161:main.c        ****         }
 162:main.c        ****         if(delay > 475){
 416              		.loc 1 162 0
 417 022e B4F5EE7F 		cmp	r4, #476
 418 0232 00DB     		blt	.L15
 163:main.c        ****             delaySubtract = 10;
 419              		.loc 1 163 0
 420 0234 0A25     		movs	r5, #10
 421              	.LVL84:
 422              	.L15:
 164:main.c        ****         }
 165:main.c        ****         if(delay < 100 && delaySubtract > 0){
 423              		.loc 1 165 0
 424 0236 632C     		cmp	r4, #99
 425 0238 01DC     		bgt	.L16
 426              		.loc 1 165 0 is_stmt 0 discriminator 1
 427 023a 002D     		cmp	r5, #0
 428 023c 04DC     		bgt	.L25
 429              	.L16:
 166:main.c        ****             delaySubtract = 1;
 167:main.c        ****         }
 168:main.c        ****         else if(delay < 200 && delaySubtract > 0){
 430              		.loc 1 168 0 is_stmt 1
 431 023e C72C     		cmp	r4, #199
ARM GAS  C:\Users\nikla\AppData\Local\Temp\ccwX8bEU.s 			page 12


 432 0240 05DC     		bgt	.L17
 433              		.loc 1 168 0 is_stmt 0 discriminator 1
 434 0242 002D     		cmp	r5, #0
 435 0244 02DC     		bgt	.L26
 436 0246 02E0     		b	.L17
 437              	.L25:
 166:main.c        ****             delaySubtract = 1;
 438              		.loc 1 166 0 is_stmt 1
 439 0248 0125     		movs	r5, #1
 440              	.LVL85:
 441 024a 00E0     		b	.L17
 442              	.LVL86:
 443              	.L26:
 169:main.c        ****             delaySubtract = 3;
 444              		.loc 1 169 0
 445 024c 0325     		movs	r5, #3
 446              	.LVL87:
 447              	.L17:
 170:main.c        ****         }
 171:main.c        ****         if(delay > 200 && delaySubtract < 0){
 448              		.loc 1 171 0
 449 024e C82C     		cmp	r4, #200
 450 0250 01DD     		ble	.L18
 451              		.loc 1 171 0 is_stmt 0 discriminator 1
 452 0252 002D     		cmp	r5, #0
 453 0254 04DB     		blt	.L27
 454              	.L18:
 172:main.c        ****             delaySubtract = -10;
 173:main.c        ****         }
 174:main.c        ****         else if(delay > 100 && delaySubtract < 0){
 455              		.loc 1 174 0 is_stmt 1
 456 0256 642C     		cmp	r4, #100
 457 0258 07DD     		ble	.L19
 458              		.loc 1 174 0 is_stmt 0 discriminator 1
 459 025a 002D     		cmp	r5, #0
 460 025c 05DA     		bge	.L19
 461 025e 02E0     		b	.L28
 462              	.L27:
 172:main.c        ****             delaySubtract = -10;
 463              		.loc 1 172 0 is_stmt 1
 464 0260 6FF00905 		mvn	r5, #9
 465              	.LVL88:
 466 0264 01E0     		b	.L19
 467              	.LVL89:
 468              	.L28:
 175:main.c        ****             delaySubtract = -5;
 469              		.loc 1 175 0
 470 0266 6FF00405 		mvn	r5, #4
 471              	.LVL90:
 472              	.L19:
 176:main.c        ****         }
 177:main.c        ****         delay-=delaySubtract;
 473              		.loc 1 177 0
 474 026a 641B     		subs	r4, r4, r5
 475              	.LVL91:
 178:main.c        ****         CyDelay(delay);
 476              		.loc 1 178 0
ARM GAS  C:\Users\nikla\AppData\Local\Temp\ccwX8bEU.s 			page 13


 477 026c 2046     		mov	r0, r4
 478 026e FFF7FEFF 		bl	CyDelay
 479              	.LVL92:
 179:main.c        ****     }
 480              		.loc 1 179 0
 481 0272 CFE7     		b	.L10
 482              	.L33:
 483              		.align	2
 484              	.L32:
 485 0274 00000000 		.word	.LC0
 486 0278 00000000 		.word	sensor_isr_handler
 487 027c 00000840 		.word	1074266112
 488 0280 00000000 		.word	.LANCHOR0
 489 0284 08000000 		.word	.LC1
 490 0288 00C04C44 		.word	1145880576
 491 028c 20000000 		.word	.LC2
 492              		.cfi_endproc
 493              	.LFE64:
 494              		.size	main, .-main
 495              		.section	.text._write,"ax",%progbits
 496              		.align	2
 497              		.global	_write
 498              		.thumb
 499              		.thumb_func
 500              		.type	_write, %function
 501              	_write:
 502              	.LFB65:
 180:main.c        ****  }   
 181:main.c        **** //*/
 182:main.c        **** 
 183:main.c        **** 
 184:main.c        **** /*//ultra sonic sensor//
 185:main.c        **** int main()
 186:main.c        **** {
 187:main.c        ****     CyGlobalIntEnable; 
 188:main.c        ****     UART_1_Start();
 189:main.c        ****     Ultra_Start();                          // Ultra Sonic Start function
 190:main.c        ****     while(1) {
 191:main.c        ****         //If you want to print out the value  
 192:main.c        ****         printf("distance = %5.0f\r\n", Ultra_GetDistance());
 193:main.c        ****         CyDelay(1000);
 194:main.c        ****     }
 195:main.c        **** }   
 196:main.c        **** //*/
 197:main.c        **** 
 198:main.c        **** 
 199:main.c        **** /*//nunchuk//
 200:main.c        **** int main()
 201:main.c        **** {
 202:main.c        ****     CyGlobalIntEnable; 
 203:main.c        ****     UART_1_Start();
 204:main.c        ****   
 205:main.c        ****     nunchuk_start();
 206:main.c        ****     nunchuk_init();
 207:main.c        ****     
 208:main.c        ****     for(;;)
 209:main.c        ****     {    
ARM GAS  C:\Users\nikla\AppData\Local\Temp\ccwX8bEU.s 			page 14


 210:main.c        ****         nunchuk_read();
 211:main.c        ****     }
 212:main.c        **** }   
 213:main.c        **** //*/
 214:main.c        **** 
 215:main.c        **** 
 216:main.c        **** /*//IR receiver//
 217:main.c        **** int main()
 218:main.c        **** {
 219:main.c        ****     CyGlobalIntEnable; 
 220:main.c        ****     UART_1_Start();
 221:main.c        ****     
 222:main.c        ****     unsigned int IR_val; 
 223:main.c        ****     
 224:main.c        ****     for(;;)
 225:main.c        ****     {
 226:main.c        ****        IR_val = get_IR();
 227:main.c        ****        printf("%x\r\n\n",IR_val);
 228:main.c        ****     }    
 229:main.c        ****  }   
 230:main.c        **** //*/
 231:main.c        **** 
 232:main.c        **** 
 233:main.c        **** /*//Ambient light sensor//
 234:main.c        **** int main()
 235:main.c        **** {
 236:main.c        ****     CyGlobalIntEnable; 
 237:main.c        ****     UART_1_Start();
 238:main.c        ****     
 239:main.c        ****     I2C_Start();
 240:main.c        ****     
 241:main.c        ****     I2C_write(0x29,0x80,0x00);          // set to power down
 242:main.c        ****     I2C_write(0x29,0x80,0x03);          // set to power on
 243:main.c        ****     
 244:main.c        ****     for(;;)
 245:main.c        ****     {    
 246:main.c        ****         uint8 Data0Low,Data0High,Data1Low,Data1High;
 247:main.c        ****         Data0Low = I2C_read(0x29,CH0_L);
 248:main.c        ****         Data0High = I2C_read(0x29,CH0_H);
 249:main.c        ****         Data1Low = I2C_read(0x29,CH1_L);
 250:main.c        ****         Data1High = I2C_read(0x29,CH1_H);
 251:main.c        ****         
 252:main.c        ****         uint8 CH0, CH1;
 253:main.c        ****         CH0 = convert_raw(Data0Low,Data0High);      // combine Data0
 254:main.c        ****         CH1 = convert_raw(Data1Low,Data1High);      // combine Data1
 255:main.c        **** 
 256:main.c        ****         double Ch0 = CH0;
 257:main.c        ****         double Ch1 = CH1;
 258:main.c        ****         
 259:main.c        ****         double data = 0;
 260:main.c        ****         data = getLux(Ch0,Ch1);
 261:main.c        ****         
 262:main.c        ****         // If you want to print out data
 263:main.c        ****         //printf("%lf\r\n",data);    
 264:main.c        ****     }    
 265:main.c        ****  }   
 266:main.c        **** //*/
ARM GAS  C:\Users\nikla\AppData\Local\Temp\ccwX8bEU.s 			page 15


 267:main.c        **** 
 268:main.c        **** 
 269:main.c        **** /*//accelerometer//
 270:main.c        **** int main()
 271:main.c        **** {
 272:main.c        ****     CyGlobalIntEnable; 
 273:main.c        ****     UART_1_Start();
 274:main.c        ****   
 275:main.c        ****     I2C_Start();
 276:main.c        ****   
 277:main.c        ****     uint8 X_L_A, X_H_A, Y_L_A, Y_H_A, Z_L_A, Z_H_A;
 278:main.c        ****     int16 X_AXIS_A, Y_AXIS_A, Z_AXIS_A;
 279:main.c        ****     
 280:main.c        ****     I2C_write(ACCEL_MAG_ADDR, ACCEL_CTRL1_REG, 0x37);           // set accelerometer & magnetometer
 281:main.c        ****     I2C_write(ACCEL_MAG_ADDR, ACCEL_CTRL7_REG, 0x22);
 282:main.c        ****     
 283:main.c        ****     
 284:main.c        ****     for(;;)
 285:main.c        ****     {
 286:main.c        ****         //print out accelerometer output
 287:main.c        ****         X_L_A = I2C_read(ACCEL_MAG_ADDR, OUT_X_L_A);
 288:main.c        ****         X_H_A = I2C_read(ACCEL_MAG_ADDR, OUT_X_H_A);
 289:main.c        ****         X_AXIS_A = convert_raw(X_L_A, X_H_A);
 290:main.c        ****         
 291:main.c        ****         Y_L_A = I2C_read(ACCEL_MAG_ADDR, OUT_Y_L_A);
 292:main.c        ****         Y_H_A = I2C_read(ACCEL_MAG_ADDR, OUT_Y_H_A);
 293:main.c        ****         Y_AXIS_A = convert_raw(Y_L_A, Y_H_A);
 294:main.c        ****         
 295:main.c        ****         Z_L_A = I2C_read(ACCEL_MAG_ADDR, OUT_Z_L_A);
 296:main.c        ****         Z_H_A = I2C_read(ACCEL_MAG_ADDR, OUT_Z_H_A);
 297:main.c        ****         Z_AXIS_A = convert_raw(Z_L_A, Z_H_A);
 298:main.c        ****         
 299:main.c        ****         printf("ACCEL: %d %d %d %d %d %d \r\n", X_L_A, X_H_A, Y_L_A, Y_H_A, Z_L_A, Z_H_A);
 300:main.c        ****         value_convert_accel(X_AXIS_A, Y_AXIS_A, Z_AXIS_A);
 301:main.c        ****         printf("\n");
 302:main.c        ****         
 303:main.c        ****         CyDelay(50);
 304:main.c        ****     }
 305:main.c        **** }   
 306:main.c        **** //*/
 307:main.c        **** 
 308:main.c        **** 
 309:main.c        **** /*//reflectance//
 310:main.c        **** int main()
 311:main.c        **** {
 312:main.c        ****     struct sensors_ ref;
 313:main.c        ****     struct sensors_ dig;
 314:main.c        ****     CyGlobalIntEnable; 
 315:main.c        ****     UART_1_Start();
 316:main.c        ****   
 317:main.c        ****     sensor_isr_StartEx(sensor_isr_handler);
 318:main.c        ****     
 319:main.c        ****     reflectance_start();
 320:main.c        **** 
 321:main.c        ****     IR_led_Write(1);
 322:main.c        ****     for(;;)
 323:main.c        ****     {
ARM GAS  C:\Users\nikla\AppData\Local\Temp\ccwX8bEU.s 			page 16


 324:main.c        ****         reflectance_read(&ref);
 325:main.c        ****         printf("%d %d %d %d \r\n", ref.l3, ref.l1, ref.r1, ref.r3);       //print out each period o
 326:main.c        ****         reflectance_digital(&dig);      //print out 0 or 1 according to results of reflectance peri
 327:main.c        ****         printf("%d %d %d %d \r\n", dig.l3, dig.l1, dig.r1, dig.r3);        //print out 0 or 1 accor
 328:main.c        ****         
 329:main.c        ****         CyDelay(500);
 330:main.c        ****     }
 331:main.c        **** }   
 332:main.c        **** //*/
 333:main.c        **** 
 334:main.c        ****  /* //motor//
 335:main.c        **** int main()
 336:main.c        **** {
 337:main.c        ****     CyGlobalIntEnable; 
 338:main.c        ****     UART_1_Start();
 339:main.c        **** 
 340:main.c        ****     motor_start();              // motor start
 341:main.c        **** 
 342:main.c        ****     motor_forward(100,2000);     // moving forward
 343:main.c        ****     motor_turn(200,50,2000);     // turn
 344:main.c        ****     motor_turn(50,200,2000);     // turn
 345:main.c        ****     motor_backward(100,2000);    // movinb backward
 346:main.c        ****        
 347:main.c        ****     motor_stop();               // motor stop
 348:main.c        ****     
 349:main.c        ****     for(;;)
 350:main.c        ****     {
 351:main.c        **** 
 352:main.c        ****     }
 353:main.c        **** }
 354:main.c        **** //*/
 355:main.c        ****     
 356:main.c        **** 
 357:main.c        **** /*//gyroscope//
 358:main.c        **** int main()
 359:main.c        **** {
 360:main.c        ****     CyGlobalIntEnable; 
 361:main.c        ****     UART_1_Start();
 362:main.c        ****   
 363:main.c        ****     I2C_Start();
 364:main.c        ****   
 365:main.c        ****     uint8 X_L_G, X_H_G, Y_L_G, Y_H_G, Z_L_G, Z_H_G;
 366:main.c        ****     int16 X_AXIS_G, Y_AXIS_G, Z_AXIS_G;
 367:main.c        ****     
 368:main.c        ****     I2C_write(GYRO_ADDR, GYRO_CTRL1_REG, 0x0F);             // set gyroscope into active mode
 369:main.c        ****     I2C_write(GYRO_ADDR, GYRO_CTRL4_REG, 0x30);             // set full scale selection to 2000dps 
 370:main.c        ****     
 371:main.c        ****     for(;;)
 372:main.c        ****     {
 373:main.c        ****         //print out gyroscope output
 374:main.c        ****         X_L_G = I2C_read(GYRO_ADDR, OUT_X_AXIS_L);
 375:main.c        ****         X_H_G = I2C_read(GYRO_ADDR, OUT_X_AXIS_H);
 376:main.c        ****         X_AXIS_G = convert_raw(X_H_G, X_L_G);
 377:main.c        ****         
 378:main.c        ****         
 379:main.c        ****         Y_L_G = I2C_read(GYRO_ADDR, OUT_Y_AXIS_L);
 380:main.c        ****         Y_H_G = I2C_read(GYRO_ADDR, OUT_Y_AXIS_H);
ARM GAS  C:\Users\nikla\AppData\Local\Temp\ccwX8bEU.s 			page 17


 381:main.c        ****         Y_AXIS_G = convert_raw(Y_H_G, Y_L_G);
 382:main.c        ****         
 383:main.c        ****         
 384:main.c        ****         Z_L_G = I2C_read(GYRO_ADDR, OUT_Z_AXIS_L);
 385:main.c        ****         Z_H_G = I2C_read(GYRO_ADDR, OUT_Z_AXIS_H);
 386:main.c        ****         Z_AXIS_G = convert_raw(Z_H_G, Z_L_G);
 387:main.c        ****      
 388:main.c        ****         // If you want to print value
 389:main.c        ****         printf("%d %d %d \r\n", X_AXIS_G, Y_AXIS_G, Z_AXIS_G);
 390:main.c        ****         CyDelay(50);
 391:main.c        ****     }
 392:main.c        **** }   
 393:main.c        **** //*/
 394:main.c        **** 
 395:main.c        **** 
 396:main.c        **** /*//magnetometer//
 397:main.c        **** int main()
 398:main.c        **** {
 399:main.c        ****     CyGlobalIntEnable; 
 400:main.c        ****     UART_1_Start();
 401:main.c        ****   
 402:main.c        ****     I2C_Start();
 403:main.c        ****    
 404:main.c        ****     uint8 X_L_M, X_H_M, Y_L_M, Y_H_M, Z_L_M, Z_H_M;
 405:main.c        ****     int16 X_AXIS, Y_AXIS, Z_AXIS;
 406:main.c        ****     
 407:main.c        ****     I2C_write(GYRO_ADDR, GYRO_CTRL1_REG, 0x0F);             // set gyroscope into active mode
 408:main.c        ****     I2C_write(GYRO_ADDR, GYRO_CTRL4_REG, 0x30);             // set full scale selection to 2000dps
 409:main.c        ****     I2C_write(ACCEL_MAG_ADDR, ACCEL_CTRL1_REG, 0x37);           // set accelerometer & magnetometer
 410:main.c        ****     I2C_write(ACCEL_MAG_ADDR, ACCEL_CTRL7_REG, 0x22);
 411:main.c        ****     
 412:main.c        ****     
 413:main.c        ****     for(;;)
 414:main.c        ****     {
 415:main.c        ****         X_L_M = I2C_read(ACCEL_MAG_ADDR, OUT_X_L_M);
 416:main.c        ****         X_H_M = I2C_read(ACCEL_MAG_ADDR, OUT_X_H_M);
 417:main.c        ****         X_AXIS = convert_raw(X_L_M, X_H_M);
 418:main.c        ****         
 419:main.c        ****         Y_L_M = I2C_read(ACCEL_MAG_ADDR, OUT_Y_L_M);
 420:main.c        ****         Y_H_M = I2C_read(ACCEL_MAG_ADDR, OUT_Y_H_M);
 421:main.c        ****         Y_AXIS = convert_raw(Y_L_M, Y_H_M);
 422:main.c        ****         
 423:main.c        ****         Z_L_M = I2C_read(ACCEL_MAG_ADDR, OUT_Z_L_M);
 424:main.c        ****         Z_H_M = I2C_read(ACCEL_MAG_ADDR, OUT_Z_H_M);
 425:main.c        ****         Z_AXIS = convert_raw(Z_L_M, Z_H_M);
 426:main.c        ****         
 427:main.c        ****         heading(X_AXIS, Y_AXIS);
 428:main.c        ****         printf("MAGNET: %d %d %d %d %d %d \r\n", X_L_M, X_H_M, Y_L_M, Y_H_M, Z_L_M, Z_H_M);
 429:main.c        ****         printf("%d %d %d \r\n", X_AXIS,Y_AXIS, Z_AXIS);
 430:main.c        ****         CyDelay(50);      
 431:main.c        ****     }
 432:main.c        **** }   
 433:main.c        **** //*/
 434:main.c        **** 
 435:main.c        **** 
 436:main.c        **** #if 0
 437:main.c        **** int rread(void)
ARM GAS  C:\Users\nikla\AppData\Local\Temp\ccwX8bEU.s 			page 18


 438:main.c        **** {
 439:main.c        ****     SC0_SetDriveMode(PIN_DM_STRONG);
 440:main.c        ****     SC0_Write(1);
 441:main.c        ****     CyDelayUs(10);
 442:main.c        ****     SC0_SetDriveMode(PIN_DM_DIG_HIZ);
 443:main.c        ****     Timer_1_Start();
 444:main.c        ****     uint16_t start = Timer_1_ReadCounter();
 445:main.c        ****     uint16_t end = 0;
 446:main.c        ****     while(!(Timer_1_ReadStatusRegister() & Timer_1_STATUS_TC)) {
 447:main.c        ****         if(SC0_Read() == 0 && end == 0) {
 448:main.c        ****             end = Timer_1_ReadCounter();
 449:main.c        ****         }
 450:main.c        ****     }
 451:main.c        ****     Timer_1_Stop();
 452:main.c        ****     
 453:main.c        ****     return (start - end);
 454:main.c        **** }
 455:main.c        **** #endif
 456:main.c        **** 
 457:main.c        **** /* Don't remove the functions below */
 458:main.c        **** int _write(int file, char *ptr, int len)
 459:main.c        **** {
 503              		.loc 1 459 0
 504              		.cfi_startproc
 505              		@ args = 0, pretend = 0, frame = 0
 506              		@ frame_needed = 0, uses_anonymous_args = 0
 507              	.LVL93:
 508 0000 F8B5     		push	{r3, r4, r5, r6, r7, lr}
 509              		.cfi_def_cfa_offset 24
 510              		.cfi_offset 3, -24
 511              		.cfi_offset 4, -20
 512              		.cfi_offset 5, -16
 513              		.cfi_offset 6, -12
 514              		.cfi_offset 7, -8
 515              		.cfi_offset 14, -4
 516 0002 0C46     		mov	r4, r1
 517 0004 1746     		mov	r7, r2
 518              	.LVL94:
 460:main.c        ****     (void)file; /* Parameter is not used, suppress unused argument warning */
 461:main.c        **** 	int n;
 462:main.c        **** 	for(n = 0; n < len; n++) {
 519              		.loc 1 462 0
 520 0006 0025     		movs	r5, #0
 521 0008 0BE0     		b	.L35
 522              	.LVL95:
 523              	.L37:
 463:main.c        ****         if(*ptr == '\n') UART_1_PutChar('\r');
 524              		.loc 1 463 0
 525 000a 2378     		ldrb	r3, [r4]	@ zero_extendqisi2
 526 000c 0A2B     		cmp	r3, #10
 527 000e 02D1     		bne	.L36
 528              		.loc 1 463 0 is_stmt 0 discriminator 1
 529 0010 0D20     		movs	r0, #13
 530 0012 FFF7FEFF 		bl	UART_1_PutChar
 531              	.LVL96:
 532              	.L36:
 464:main.c        **** 		UART_1_PutChar(*ptr++);
ARM GAS  C:\Users\nikla\AppData\Local\Temp\ccwX8bEU.s 			page 19


 533              		.loc 1 464 0 is_stmt 1 discriminator 2
 534 0016 661C     		adds	r6, r4, #1
 535              	.LVL97:
 536 0018 2078     		ldrb	r0, [r4]	@ zero_extendqisi2
 537 001a FFF7FEFF 		bl	UART_1_PutChar
 538              	.LVL98:
 462:main.c        ****         if(*ptr == '\n') UART_1_PutChar('\r');
 539              		.loc 1 462 0 discriminator 2
 540 001e 0135     		adds	r5, r5, #1
 541              	.LVL99:
 542              		.loc 1 464 0 discriminator 2
 543 0020 3446     		mov	r4, r6
 544              	.LVL100:
 545              	.L35:
 462:main.c        ****         if(*ptr == '\n') UART_1_PutChar('\r');
 546              		.loc 1 462 0 discriminator 1
 547 0022 BD42     		cmp	r5, r7
 548 0024 F1DB     		blt	.L37
 465:main.c        **** 	}
 466:main.c        **** 	return len;
 467:main.c        **** }
 549              		.loc 1 467 0
 550 0026 3846     		mov	r0, r7
 551 0028 F8BD     		pop	{r3, r4, r5, r6, r7, pc}
 552              		.cfi_endproc
 553              	.LFE65:
 554              		.size	_write, .-_write
 555 002a 00BF     		.section	.text._read,"ax",%progbits
 556              		.align	2
 557              		.global	_read
 558              		.thumb
 559              		.thumb_func
 560              		.type	_read, %function
 561              	_read:
 562              	.LFB66:
 468:main.c        **** 
 469:main.c        **** int _read (int file, char *ptr, int count)
 470:main.c        **** {
 563              		.loc 1 470 0
 564              		.cfi_startproc
 565              		@ args = 0, pretend = 0, frame = 0
 566              		@ frame_needed = 0, uses_anonymous_args = 0
 567              	.LVL101:
 568 0000 F8B5     		push	{r3, r4, r5, r6, r7, lr}
 569              		.cfi_def_cfa_offset 24
 570              		.cfi_offset 3, -24
 571              		.cfi_offset 4, -20
 572              		.cfi_offset 5, -16
 573              		.cfi_offset 6, -12
 574              		.cfi_offset 7, -8
 575              		.cfi_offset 14, -4
 576 0002 0F46     		mov	r7, r1
 577 0004 1446     		mov	r4, r2
 578              	.LVL102:
 471:main.c        ****     int chs = 0;
 579              		.loc 1 471 0
 580 0006 0026     		movs	r6, #0
ARM GAS  C:\Users\nikla\AppData\Local\Temp\ccwX8bEU.s 			page 20


 472:main.c        ****     char ch;
 473:main.c        ****  
 474:main.c        ****     (void)file; /* Parameter is not used, suppress unused argument warning */
 475:main.c        ****     while(count > 0) {
 581              		.loc 1 475 0
 582 0008 12E0     		b	.L41
 583              	.LVL103:
 584              	.L44:
 476:main.c        ****         ch = UART_1_GetChar();
 585              		.loc 1 476 0
 586 000a FFF7FEFF 		bl	UART_1_GetChar
 587              	.LVL104:
 477:main.c        ****         if(ch != 0) {
 588              		.loc 1 477 0
 589 000e 0546     		mov	r5, r0
 590 0010 70B1     		cbz	r0, .L41
 478:main.c        ****             UART_1_PutChar(ch);
 591              		.loc 1 478 0
 592 0012 FFF7FEFF 		bl	UART_1_PutChar
 593              	.LVL105:
 479:main.c        ****             chs++;
 594              		.loc 1 479 0
 595 0016 0136     		adds	r6, r6, #1
 596              	.LVL106:
 480:main.c        ****             if(ch == '\r') {
 597              		.loc 1 480 0
 598 0018 0D2D     		cmp	r5, #13
 599 001a 03D1     		bne	.L42
 600              	.LVL107:
 481:main.c        ****                 ch = '\n';
 482:main.c        ****                 UART_1_PutChar(ch);
 601              		.loc 1 482 0
 602 001c 0A20     		movs	r0, #10
 603 001e FFF7FEFF 		bl	UART_1_PutChar
 604              	.LVL108:
 481:main.c        ****                 ch = '\n';
 605              		.loc 1 481 0
 606 0022 0A25     		movs	r5, #10
 607              	.LVL109:
 608              	.L42:
 483:main.c        ****             }
 484:main.c        ****             *ptr++ = ch;
 609              		.loc 1 484 0
 610 0024 7B1C     		adds	r3, r7, #1
 611              	.LVL110:
 612 0026 3D70     		strb	r5, [r7]
 485:main.c        ****             count--;
 613              		.loc 1 485 0
 614 0028 013C     		subs	r4, r4, #1
 615              	.LVL111:
 486:main.c        ****             if(ch == '\n') break;
 616              		.loc 1 486 0
 617 002a 0A2D     		cmp	r5, #10
 618 002c 02D0     		beq	.L43
 484:main.c        ****             count--;
 619              		.loc 1 484 0
 620 002e 1F46     		mov	r7, r3
ARM GAS  C:\Users\nikla\AppData\Local\Temp\ccwX8bEU.s 			page 21


 621              	.LVL112:
 622              	.L41:
 475:main.c        ****         ch = UART_1_GetChar();
 623              		.loc 1 475 0
 624 0030 002C     		cmp	r4, #0
 625 0032 EADC     		bgt	.L44
 626              	.LVL113:
 627              	.L43:
 487:main.c        ****         }
 488:main.c        ****     }
 489:main.c        ****     return chs;
 490:main.c        **** }
 628              		.loc 1 490 0
 629 0034 3046     		mov	r0, r6
 630 0036 F8BD     		pop	{r3, r4, r5, r6, r7, pc}
 631              		.cfi_endproc
 632              	.LFE66:
 633              		.size	_read, .-_read
 634              		.global	MAX_SPEED
 635              		.data
 636              		.set	.LANCHOR0,. + 0
 637              		.type	MAX_SPEED, %object
 638              		.size	MAX_SPEED, 1
 639              	MAX_SPEED:
 640 0000 FF       		.byte	-1
 641              		.section	.rodata.str1.4,"aMS",%progbits,1
 642              		.align	2
 643              	.LC0:
 644 0000 0A426F6F 		.ascii	"\012Boot\000"
 644      7400
 645 0006 0000     		.space	2
 646              	.LC1:
 647 0008 6C656674 		.ascii	"left : %f right : %f\012\000"
 647      203A2025 
 647      66207269 
 647      67687420 
 647      3A202566 
 648 001e 0000     		.space	2
 649              	.LC2:
 650 0020 56626174 		.ascii	"Vbat: %.6f\012\000"
 650      3A20252E 
 650      36660A00 
 651              		.text
 652              	.Letext0:
 653              		.file 2 "c:\\program files (x86)\\cypress\\psoc creator\\4.1\\psoc creator\\import\\gnu\\arm\\5.4.
 654              		.file 3 "c:\\program files (x86)\\cypress\\psoc creator\\4.1\\psoc creator\\import\\gnu\\arm\\5.4.
 655              		.file 4 "Generated_Source\\PSoC5/cytypes.h"
 656              		.file 5 ".\\ZumoLibrary/Reflectance.h"
 657              		.file 6 "Generated_Source\\PSoC5/core_cm3.h"
 658              		.file 7 ".\\ZumoLibrary/Motor.h"
 659              		.file 8 "c:\\program files (x86)\\cypress\\psoc creator\\4.1\\psoc creator\\import\\gnu\\arm\\5.4.
 660              		.file 9 "Generated_Source\\PSoC5/UART_1.h"
 661              		.file 10 "Generated_Source\\PSoC5/ADC_Battery.h"
 662              		.file 11 "Generated_Source\\PSoC5/BatteryLed.h"
 663              		.file 12 "Generated_Source\\PSoC5/sensor_isr.h"
 664              		.file 13 "Generated_Source\\PSoC5/IR_led.h"
 665              		.file 14 "Generated_Source\\PSoC5/SW1.h"
ARM GAS  C:\Users\nikla\AppData\Local\Temp\ccwX8bEU.s 			page 22


 666              		.file 15 "Generated_Source\\PSoC5/CyLib.h"
 667              		.file 16 "c:\\program files (x86)\\cypress\\psoc creator\\4.1\\psoc creator\\import\\gnu\\arm\\5.4
 668              		.file 17 "<built-in>"